; Function Attrs: nounwind uwtable
define noundef ptr @l_Std_Format_joinSep___at___private_Std_Time_Zoned_ZoneRules_0__Std_Time_TimeZone_reprZoneRules____x40_Std_Time_Zoned_ZoneRules___hyg_532____spec__3(ptr noundef %0, ptr noundef %1) local_unnamed_addr #1 {
  %3 = ptrtoint ptr %0 to i64
  %4 = and i64 %3, 1
  %.not.i42 = icmp eq i64 %4, 0
  br i1 %.not.i42, label %8, label %5

5:                                                ; preds = %2
  %6 = lshr i64 %3, 1
  %7 = trunc i64 %6 to i32
  br label %lean_obj_tag.exit

8:                                                ; preds = %2
  %9 = getelementptr i8, ptr %0, i64 4
  %.val.i = load i32, ptr %9, align 4
  %10 = lshr i32 %.val.i, 24
  br label %lean_obj_tag.exit

lean_obj_tag.exit:                                ; preds = %5, %8
  %.0.i = phi i32 [ %7, %5 ], [ %10, %8 ]
  %11 = icmp eq i32 %.0.i, 0
  br i1 %11, label %12, label %22

12:                                               ; preds = %lean_obj_tag.exit
  %13 = ptrtoint ptr %1 to i64
  %14 = and i64 %13, 1
  %.not61 = icmp eq i64 %14, 0
  br i1 %.not61, label %15, label %lean_dec.exit29

15:                                               ; preds = %12
  %16 = load i32, ptr %1, align 4, !tbaa !4
  %17 = icmp sgt i32 %16, 1
  br i1 %17, label %18, label %20, !prof !9

18:                                               ; preds = %15
  %19 = add nsw i32 %16, -1
  store i32 %19, ptr %1, align 4, !tbaa !4
  br label %lean_dec.exit29

20:                                               ; preds = %15
  %.not.i = icmp eq i32 %16, 0
  br i1 %.not.i, label %lean_dec.exit29, label %21

21:                                               ; preds = %20
  tail call void @lean_dec_ref_cold(ptr noundef nonnull %1) #6
  br label %lean_dec.exit29

22:                                               ; preds = %lean_obj_tag.exit
  %23 = getelementptr inbounds nuw i8, ptr %0, i64 8
  %24 = getelementptr inbounds nuw i8, ptr %0, i64 16
  %25 = load ptr, ptr %24, align 8, !tbaa !10
  %26 = ptrtoint ptr %25 to i64
  %27 = and i64 %26, 1
  %.not = icmp eq i64 %27, 0
  br i1 %.not, label %28, label %lean_inc.exit31

28:                                               ; preds = %22
  %.val.i43 = load i32, ptr %25, align 4, !tbaa !4
  %29 = icmp sgt i32 %.val.i43, 0
  br i1 %29, label %30, label %32, !prof !9

30:                                               ; preds = %28
  %31 = add nuw i32 %.val.i43, 1
  store i32 %31, ptr %25, align 4, !tbaa !4
  br label %36

32:                                               ; preds = %28
  %.not.i44 = icmp eq i32 %.val.i43, 0
  br i1 %.not.i44, label %36, label %33

33:                                               ; preds = %32
  tail call void @lean_inc_ref_cold(ptr noundef nonnull %25) #6
  br label %36

lean_inc.exit31:                                  ; preds = %22
  %34 = lshr i64 %26, 1
  %35 = trunc i64 %34 to i32
  br label %lean_obj_tag.exit48

36:                                               ; preds = %33, %32, %30
  %37 = getelementptr i8, ptr %25, i64 4
  %.val.i47 = load i32, ptr %37, align 4
  %38 = lshr i32 %.val.i47, 24
  br label %lean_obj_tag.exit48

lean_obj_tag.exit48:                              ; preds = %lean_inc.exit31, %36
  %.0.i46 = phi i32 [ %35, %lean_inc.exit31 ], [ %38, %36 ]
  %39 = icmp eq i32 %.0.i46, 0
  br i1 %39, label %40, label %74

40:                                               ; preds = %lean_obj_tag.exit48
  %41 = ptrtoint ptr %1 to i64
  %42 = and i64 %41, 1
  %.not58 = icmp eq i64 %42, 0
  br i1 %.not58, label %43, label %lean_dec.exit28

43:                                               ; preds = %40
  %44 = load i32, ptr %1, align 4, !tbaa !4
  %45 = icmp sgt i32 %44, 1
  br i1 %45, label %46, label %48, !prof !9

46:                                               ; preds = %43
  %47 = add nsw i32 %44, -1
  store i32 %47, ptr %1, align 4, !tbaa !4
  br label %lean_dec.exit28

48:                                               ; preds = %43
  %.not.i32 = icmp eq i32 %44, 0
  br i1 %.not.i32, label %lean_dec.exit28, label %49

49:                                               ; preds = %48
  tail call void @lean_dec_ref_cold(ptr noundef nonnull %1) #6
  br label %lean_dec.exit28

lean_dec.exit28:                                  ; preds = %49, %48, %46, %40
  %50 = load ptr, ptr %23, align 8, !tbaa !10
  %51 = ptrtoint ptr %50 to i64
  %52 = and i64 %51, 1
  %.not59 = icmp eq i64 %52, 0
  br i1 %.not59, label %53, label %lean_inc.exit30

53:                                               ; preds = %lean_dec.exit28
  %.val.i49 = load i32, ptr %50, align 4, !tbaa !4
  %54 = icmp sgt i32 %.val.i49, 0
  br i1 %54, label %55, label %57, !prof !9

55:                                               ; preds = %53
  %56 = add nuw i32 %.val.i49, 1
  store i32 %56, ptr %50, align 4, !tbaa !4
  br label %lean_inc.exit30

57:                                               ; preds = %53
  %.not.i50 = icmp eq i32 %.val.i49, 0
  br i1 %.not.i50, label %lean_inc.exit30, label %58

58:                                               ; preds = %57
  tail call void @lean_inc_ref_cold(ptr noundef nonnull %50) #6
  br label %lean_inc.exit30

lean_inc.exit30:                                  ; preds = %58, %57, %55, %lean_dec.exit28
  br i1 %.not.i42, label %59, label %lean_dec.exit27

59:                                               ; preds = %lean_inc.exit30
  %60 = load i32, ptr %0, align 4, !tbaa !4
  %61 = icmp sgt i32 %60, 1
  br i1 %61, label %62, label %64, !prof !9

62:                                               ; preds = %59
  %63 = add nsw i32 %60, -1
  store i32 %63, ptr %0, align 4, !tbaa !4
  br label %lean_dec.exit27

64:                                               ; preds = %59
  %.not.i34 = icmp eq i32 %60, 0
  br i1 %.not.i34, label %lean_dec.exit27, label %65

65:                                               ; preds = %64
  tail call void @lean_dec_ref_cold(ptr noundef nonnull %0) #6
  br label %lean_dec.exit27

lean_dec.exit27:                                  ; preds = %65, %64, %62, %lean_inc.exit30
  %66 = tail call ptr @l___private_Std_Time_Zoned_ZoneRules_0__Std_Time_TimeZone_reprTransition____x40_Std_Time_Zoned_ZoneRules___hyg_442_(ptr noundef %50, ptr nonnull poison)
  br i1 %.not59, label %67, label %lean_dec.exit29

67:                                               ; preds = %lean_dec.exit27
  %68 = load i32, ptr %50, align 4, !tbaa !4
  %69 = icmp sgt i32 %68, 1
  br i1 %69, label %70, label %72, !prof !9

70:                                               ; preds = %67
  %71 = add nsw i32 %68, -1
  store i32 %71, ptr %50, align 4, !tbaa !4
  br label %lean_dec.exit29

72:                                               ; preds = %67
  %.not.i36 = icmp eq i32 %68, 0
  br i1 %.not.i36, label %lean_dec.exit29, label %73

73:                                               ; preds = %72
  tail call void @lean_dec_ref_cold(ptr noundef nonnull %50) #6
  br label %lean_dec.exit29

74:                                               ; preds = %lean_obj_tag.exit48
  %75 = load ptr, ptr %23, align 8, !tbaa !10
  %76 = ptrtoint ptr %75 to i64
  %77 = and i64 %76, 1
  %.not56 = icmp eq i64 %77, 0
  br i1 %.not56, label %78, label %lean_inc.exit

78:                                               ; preds = %74
  %.val.i52 = load i32, ptr %75, align 4, !tbaa !4
  %79 = icmp sgt i32 %.val.i52, 0
  br i1 %79, label %80, label %82, !prof !9

80:                                               ; preds = %78
  %81 = add nuw i32 %.val.i52, 1
  store i32 %81, ptr %75, align 4, !tbaa !4
  br label %lean_inc.exit

82:                                               ; preds = %78
  %.not.i53 = icmp eq i32 %.val.i52, 0
  br i1 %.not.i53, label %lean_inc.exit, label %83

83:                                               ; preds = %82
  tail call void @lean_inc_ref_cold(ptr noundef nonnull %75) #6
  br label %lean_inc.exit

lean_inc.exit:                                    ; preds = %83, %82, %80, %74
  br i1 %.not.i42, label %84, label %lean_dec.exit25

84:                                               ; preds = %lean_inc.exit
  %85 = load i32, ptr %0, align 4, !tbaa !4
  %86 = icmp sgt i32 %85, 1
  br i1 %86, label %87, label %89, !prof !9

87:                                               ; preds = %84
  %88 = add nsw i32 %85, -1
  store i32 %88, ptr %0, align 4, !tbaa !4
  br label %lean_dec.exit25

89:                                               ; preds = %84
  %.not.i38 = icmp eq i32 %85, 0
  br i1 %.not.i38, label %lean_dec.exit25, label %90

90:                                               ; preds = %89
  tail call void @lean_dec_ref_cold(ptr noundef nonnull %0) #6
  br label %lean_dec.exit25

lean_dec.exit25:                                  ; preds = %90, %89, %87, %lean_inc.exit
  %91 = tail call ptr @l___private_Std_Time_Zoned_ZoneRules_0__Std_Time_TimeZone_reprTransition____x40_Std_Time_Zoned_ZoneRules___hyg_442_(ptr noundef %75, ptr nonnull poison)
  br i1 %.not56, label %92, label %lean_dec.exit

92:                                               ; preds = %lean_dec.exit25
  %93 = load i32, ptr %75, align 4, !tbaa !4
  %94 = icmp sgt i32 %93, 1
  br i1 %94, label %95, label %97, !prof !9

95:                                               ; preds = %92
  %96 = add nsw i32 %93, -1
  store i32 %96, ptr %75, align 4, !tbaa !4
  br label %lean_dec.exit

97:                                               ; preds = %92
  %.not.i40 = icmp eq i32 %93, 0
  br i1 %.not.i40, label %lean_dec.exit, label %98

98:                                               ; preds = %97
  tail call void @lean_dec_ref_cold(ptr noundef nonnull %75) #6
  br label %lean_dec.exit

lean_dec.exit:                                    ; preds = %98, %97, %95, %lean_dec.exit25
  %99 = tail call ptr @l_List_foldl___at___private_Std_Time_Zoned_ZoneRules_0__Std_Time_TimeZone_reprZoneRules____x40_Std_Time_Zoned_ZoneRules___hyg_532____spec__4(ptr noundef %1, ptr noundef nonnull %91, ptr noundef %25)
  br label %lean_dec.exit29

lean_dec.exit29:                                  ; preds = %lean_dec.exit27, %70, %72, %73, %12, %18, %20, %21, %lean_dec.exit
  %.0 = phi ptr [ %99, %lean_dec.exit ], [ inttoptr (i64 1 to ptr), %21 ], [ inttoptr (i64 1 to ptr), %20 ], [ inttoptr (i64 1 to ptr), %18 ], [ inttoptr (i64 1 to ptr), %12 ], [ %66, %73 ], [ %66, %72 ], [ %66, %70 ], [ %66, %lean_dec.exit27 ]
  ret ptr %.0
}